Certificate:
    Data:
        Version: 3 (0x2)
        Serial Number:
            61:74:e5:68:11:63:be:bb:fa:fa:4d:63:12:ad:fa:6a
        Signature Algorithm: sha256WithRSAEncryption
        Issuer: CN=ChangeMe
        Validity
            Not Before: Sep 23 12:46:42 2025 GMT
            Not After : Dec 27 12:46:42 2027 GMT
        Subject: CN=ChangeMe
        Subject Public Key Info:
            Public Key Algorithm: rsaEncryption
                Public-Key: (2048 bit)
                Modulus:
                    00:ae:66:65:3b:39:6e:aa:39:39:7f:f1:be:18:c4:
                    52:60:c3:3c:63:77:2a:fd:d0:79:22:6a:5f:b7:ab:
                    9d:94:27:89:9a:5c:2d:b7:ea:66:91:f7:06:57:24:
                    38:bd:55:71:2d:ff:9a:dd:b3:ed:0c:bf:1b:8c:93:
                    27:63:d4:a1:a7:00:55:68:c5:a0:c4:9e:d3:51:d7:
                    ec:f8:9d:7e:b1:a4:84:80:78:9b:76:58:61:b9:89:
                    c9:94:e5:ad:ca:61:33:e0:f7:f3:35:0a:fc:6c:28:
                    b5:53:57:52:01:0a:e1:60:f1:42:f0:a4:d3:e1:4e:
                    25:12:83:01:ba:f5:1a:96:44:33:17:b8:69:bc:a4:
                    b1:2e:b1:e0:e3:50:c6:6f:dc:f7:12:16:40:21:63:
                    db:14:b1:b1:fe:6f:76:84:f7:ef:a0:bb:0b:dc:03:
                    44:b6:2a:f0:61:7b:7c:4a:7a:51:9b:ab:01:8f:10:
                    a8:db:10:62:c3:72:3b:2c:fc:b5:03:e2:73:e6:1d:
                    d0:3e:a5:83:f5:ae:30:4c:d8:79:28:d1:d1:5c:61:
                    84:2d:8c:0d:8d:39:ce:a6:15:21:0b:4b:cd:29:28:
                    72:ed:9e:63:7d:73:bd:70:f3:29:4f:c5:c4:95:ef:
                    dc:a7:28:27:af:36:91:e0:53:ef:4e:7d:ba:50:34:
                    83:51
                Exponent: 65537 (0x10001)
        X509v3 extensions:
            X509v3 Basic Constraints: 
                CA:FALSE
            X509v3 Subject Key Identifier: 
                5C:FC:F9:A1:E6:BE:75:F7:02:23:72:3B:F2:09:B5:A9:D2:8C:A1:3B
            X509v3 Authority Key Identifier: 
                keyid:B4:CB:07:6E:5F:78:A9:15:7B:39:6E:54:34:D8:E4:DA:62:7E:FD:4F
                DirName:/CN=ChangeMe
                serial:07:0A:94:60:3D:68:C4:12:9E:22:66:8C:65:F9:B8:E1:3B:13:00:5D
            X509v3 Extended Key Usage: 
                TLS Web Server Authentication
            X509v3 Key Usage: 
                Digital Signature, Key Encipherment
            X509v3 Subject Alternative Name: 
                DNS:ChangeMe
    Signature Algorithm: sha256WithRSAEncryption
    Signature Value:
        6c:df:63:30:de:ae:e7:4a:07:be:c3:c6:78:fe:91:f4:89:c1:
        41:fc:58:d3:52:e8:bd:ab:6b:a1:68:d5:8a:36:4f:6f:21:68:
        2a:07:c6:cd:56:7f:8b:f9:0d:00:f7:9f:ba:2f:84:79:08:a2:
        53:8b:4b:76:6b:49:59:bb:9a:51:45:63:c3:25:ce:d2:46:61:
        fe:2c:86:d4:ae:f7:bb:de:c2:f1:4f:8d:46:6e:a6:f3:cb:25:
        72:75:e7:eb:c6:a2:10:34:8a:a9:ca:9c:b4:ba:9c:e0:50:6d:
        cd:91:a9:97:37:be:d7:40:e1:21:ba:a8:fe:8f:0d:96:2d:19:
        a0:10:41:8b:cf:16:4a:a3:83:24:96:62:11:0f:e1:76:5d:46:
        1e:60:1d:2f:9d:1c:87:de:b0:1b:f7:26:61:13:af:41:44:01:
        b6:dd:40:de:94:20:04:5e:68:42:79:7b:13:03:b0:6c:5f:d2:
        ff:3c:15:6b:ca:21:57:69:61:de:05:68:b1:9e:e5:f8:be:c2:
        38:c7:1f:53:2e:da:7b:fd:26:fa:83:8e:5d:06:70:d9:7d:9e:
        c1:75:99:70:f7:3e:66:e4:95:8e:43:ec:4a:9d:bd:0f:d7:08:
        64:f1:5f:f8:94:46:6e:46:20:44:5f:71:0b:2e:e2:0d:87:eb:
        69:cb:86:af
-----BEGIN CERTIFICATE-----
MIIDZTCCAk2gAwIBAgIQYXTlaBFjvrv6+k1jEq36ajANBgkqhkiG9w0BAQsFADAT
MREwDwYDVQQDDAhDaGFuZ2VNZTAeFw0yNTA5MjMxMjQ2NDJaFw0yNzEyMjcxMjQ2
NDJaMBMxETAPBgNVBAMMCENoYW5nZU1lMIIBIjANBgkqhkiG9w0BAQEFAAOCAQ8A
MIIBCgKCAQEArmZlOzluqjk5f/G+GMRSYMM8Y3cq/dB5Impft6udlCeJmlwtt+pm
kfcGVyQ4vVVxLf+a3bPtDL8bjJMnY9ShpwBVaMWgxJ7TUdfs+J1+saSEgHibdlhh
uYnJlOWtymEz4PfzNQr8bCi1U1dSAQrhYPFC8KTT4U4lEoMBuvUalkQzF7hpvKSx
LrHg41DGb9z3EhZAIWPbFLGx/m92hPfvoLsL3ANEtirwYXt8SnpRm6sBjxCo2xBi
w3I7LPy1A+Jz5h3QPqWD9a4wTNh5KNHRXGGELYwNjTnOphUhC0vNKShy7Z5jfXO9
cPMpT8XEle/cpygnrzaR4FPvTn26UDSDUQIDAQABo4G0MIGxMAkGA1UdEwQCMAAw
HQYDVR0OBBYEFFz8+aHmvnX3AiNyO/IJtanSjKE7ME4GA1UdIwRHMEWAFLTLB25f
eKkVezluVDTY5Npifv1PoRekFTATMREwDwYDVQQDDAhDaGFuZ2VNZYIUBwqUYD1o
xBKeImaMZfm44TsTAF0wEwYDVR0lBAwwCgYIKwYBBQUHAwEwCwYDVR0PBAQDAgWg
MBMGA1UdEQQMMAqCCENoYW5nZU1lMA0GCSqGSIb3DQEBCwUAA4IBAQBs32Mw3q7n
Sge+w8Z4/pH0icFB/FjTUui9q2uhaNWKNk9vIWgqB8bNVn+L+Q0A95+6L4R5CKJT
i0t2a0lZu5pRRWPDJc7SRmH+LIbUrve73sLxT41GbqbzyyVydefrxqIQNIqpypy0
upzgUG3NkamXN77XQOEhuqj+jw2WLRmgEEGLzxZKo4MklmIRD+F2XUYeYB0vnRyH
3rAb9yZhE69BRAG23UDelCAEXmhCeXsTA7BsX9L/PBVryiFXaWHeBWixnuX4vsI4
xx9TLtp7/Sb6g45dBnDZfZ7BdZlw9z5m5JWOQ+xKnb0P1whk8V/4lEZuRiBEX3EL
LuINh+tpy4av
-----END CERTIFICATE-----
